target datalayout = "e-m:e-p270:32:32-p271:32:32-p272:64:64-i64:64-i128:128-f80:128-n8:16:32:64-S128"
target triple = "x86_64-pc-linux-gnu"

%struct.df_func_def_t = type { ptr, ptr, i32, i32, i32, ptr }
%struct._GSList = type { ptr, ptr }

@.str = private unnamed_addr constant [8 x i8] c"DFilter\00", align 1
@.str.1 = private unnamed_addr constant [24 x i8] c"epan/dfilter/semcheck.c\00", align 1
@.str.3 = private unnamed_addr constant [31 x i8] c"assertion \22not reached\22 failed\00", align 1
@__func__.get_logical_ftype = private unnamed_addr constant [18 x i8] c"get_logical_ftype\00", align 1
@.str.6 = private unnamed_addr constant [31 x i8] c"Invalid syntax node type '%s'.\00", align 1

; Function Attrs: null_pointer_is_valid sspstrong uwtable
define internal i32 @get_slice_ftype(ptr noundef %0, ptr noundef %1) #0 {
  %3 = alloca ptr, align 8
  %4 = alloca ptr, align 8
  %5 = alloca ptr, align 8
  %6 = alloca i32, align 4
  store ptr %0, ptr %3, align 8
  store ptr %1, ptr %4, align 8
  call void @llvm.lifetime.start.p0(i64 8, ptr %5) #8
  %7 = load ptr, ptr %4, align 8
  %8 = call ptr @sttype_slice_entity(ptr noundef %7)
  store ptr %8, ptr %5, align 8
  br label %9

9:                                                ; preds = %2
  br label %10

10:                                               ; preds = %9
  br label %11

11:                                               ; preds = %10
  %12 = load ptr, ptr %3, align 8
  %13 = load ptr, ptr %5, align 8
  call void @resolve_unparsed(ptr noundef %12, ptr noundef %13, i1 noundef zeroext true)
  call void @llvm.lifetime.start.p0(i64 4, ptr %6) #8
  %14 = load ptr, ptr %3, align 8
  %15 = load ptr, ptr %5, align 8
  %16 = call i32 @get_logical_ftype(ptr noundef %14, ptr noundef %15)
  store i32 %16, ptr %6, align 4
  %17 = load i32, ptr %6, align 4
  %18 = icmp eq i32 %17, 26
  br i1 %18, label %34, label %19

19:                                               ; preds = %11
  %20 = load i32, ptr %6, align 4
  %21 = icmp eq i32 %20, 27
  br i1 %21, label %34, label %22

22:                                               ; preds = %19
  %23 = load i32, ptr %6, align 4
  %24 = icmp eq i32 %23, 43
  br i1 %24, label %34, label %25

25:                                               ; preds = %22
  %26 = load i32, ptr %6, align 4
  %27 = icmp eq i32 %26, 45
  br i1 %27, label %34, label %28

28:                                               ; preds = %25
  %29 = load i32, ptr %6, align 4
  %30 = icmp eq i32 %29, 28
  br i1 %30, label %34, label %31

31:                                               ; preds = %28
  %32 = load i32, ptr %6, align 4
  %33 = icmp eq i32 %32, 39
  br label %34

34:                                               ; preds = %31, %28, %25, %22, %19, %11
  %35 = phi i1 [ true, %28 ], [ true, %25 ], [ true, %22 ], [ true, %19 ], [ true, %11 ], [ %33, %31 ]
  %36 = select i1 %35, i32 26, i32 30
  call void @llvm.lifetime.end.p0(i64 4, ptr %6) #8
  call void @llvm.lifetime.end.p0(i64 8, ptr %5) #8
  ret i32 %36
}

; Function Attrs: null_pointer_is_valid sspstrong uwtable
define internal i32 @get_function_ftype(ptr noundef %0, ptr noundef %1) #0 {
  %3 = alloca i32, align 4
  %4 = alloca ptr, align 8
  %5 = alloca ptr, align 8
  %6 = alloca ptr, align 8
  %7 = alloca ptr, align 8
  %8 = alloca i32, align 4
  %9 = alloca i32, align 4
  %10 = alloca ptr, align 8
  %11 = alloca i32, align 4
  store ptr %0, ptr %4, align 8
  store ptr %1, ptr %5, align 8
  call void @llvm.lifetime.start.p0(i64 8, ptr %6) #8
  call void @llvm.lifetime.start.p0(i64 8, ptr %7) #8
  call void @llvm.lifetime.start.p0(i64 4, ptr %8) #8
  %12 = load ptr, ptr %5, align 8
  %13 = call ptr @sttype_function_funcdef(ptr noundef %12)
  store ptr %13, ptr %6, align 8
  %14 = load ptr, ptr %5, align 8
  %15 = call ptr @sttype_function_params(ptr noundef %14)
  store ptr %15, ptr %7, align 8
  %16 = load ptr, ptr %7, align 8
  %17 = call i32 @g_slist_length(ptr noundef %16)
  store i32 %17, ptr %8, align 4
  %18 = load ptr, ptr %6, align 8
  %19 = getelementptr inbounds nuw %struct.df_func_def_t, ptr %18, i32 0, i32 4
  %20 = load i32, ptr %19, align 8
  %21 = icmp ne i32 %20, 0
  br i1 %21, label %22, label %26

22:                                               ; preds = %2
  %23 = load ptr, ptr %6, align 8
  %24 = getelementptr inbounds nuw %struct.df_func_def_t, ptr %23, i32 0, i32 4
  %25 = load i32, ptr %24, align 8
  store i32 %25, ptr %3, align 4
  store i32 1, ptr %9, align 4
  br label %61

26:                                               ; preds = %2
  %27 = load i32, ptr %8, align 4
  %28 = icmp ult i32 %27, 1
  br i1 %28, label %29, label %30

29:                                               ; preds = %26
  store i32 0, ptr %3, align 4
  store i32 1, ptr %9, align 4
  br label %61

30:                                               ; preds = %26
  call void @llvm.lifetime.start.p0(i64 8, ptr %10) #8
  %31 = load ptr, ptr %7, align 8
  store ptr %31, ptr %10, align 8
  br label %32

32:                                               ; preds = %54, %30
  %33 = load ptr, ptr %10, align 8
  %34 = icmp ne ptr %33, null
  br i1 %34, label %36, label %35

35:                                               ; preds = %32
  store i32 2, ptr %9, align 4
  br label %58

36:                                               ; preds = %32
  %37 = load ptr, ptr %4, align 8
  %38 = load ptr, ptr %10, align 8
  %39 = getelementptr inbounds nuw %struct._GSList, ptr %38, i32 0, i32 0
  %40 = load ptr, ptr %39, align 8
  call void @resolve_unparsed(ptr noundef %37, ptr noundef %40, i1 noundef zeroext false)
  call void @llvm.lifetime.start.p0(i64 4, ptr %11) #8
  %41 = load ptr, ptr %4, align 8
  %42 = load ptr, ptr %10, align 8
  %43 = getelementptr inbounds nuw %struct._GSList, ptr %42, i32 0, i32 0
  %44 = load ptr, ptr %43, align 8
  %45 = call i32 @get_logical_ftype(ptr noundef %41, ptr noundef %44)
  store i32 %45, ptr %11, align 4
  %46 = load i32, ptr %11, align 4
  %47 = icmp ne i32 %46, 0
  br i1 %47, label %48, label %50

48:                                               ; preds = %36
  %49 = load i32, ptr %11, align 4
  store i32 %49, ptr %3, align 4
  store i32 1, ptr %9, align 4
  br label %51

50:                                               ; preds = %36
  store i32 0, ptr %9, align 4
  br label %51

51:                                               ; preds = %50, %48
  call void @llvm.lifetime.end.p0(i64 4, ptr %11) #8
  %52 = load i32, ptr %9, align 4
  switch i32 %52, label %58 [
    i32 0, label %53
  ]

53:                                               ; preds = %51
  br label %54

54:                                               ; preds = %53
  %55 = load ptr, ptr %10, align 8
  %56 = getelementptr inbounds nuw %struct._GSList, ptr %55, i32 0, i32 1
  %57 = load ptr, ptr %56, align 8
  store ptr %57, ptr %10, align 8
  br label %32, !llvm.loop !11

58:                                               ; preds = %51, %35
  call void @llvm.lifetime.end.p0(i64 8, ptr %10) #8
  %59 = load i32, ptr %9, align 4
  switch i32 %59, label %61 [
    i32 2, label %60
  ]

60:                                               ; preds = %58
  store i32 0, ptr %3, align 4
  store i32 1, ptr %9, align 4
  br label %61

61:                                               ; preds = %60, %58, %29, %22
  call void @llvm.lifetime.end.p0(i64 4, ptr %8) #8
  call void @llvm.lifetime.end.p0(i64 8, ptr %7) #8
  call void @llvm.lifetime.end.p0(i64 8, ptr %6) #8
  %62 = load i32, ptr %3, align 4
  ret i32 %62
}

; Function Attrs: null_pointer_is_valid sspstrong uwtable
define hidden i32 @get_logical_ftype(ptr noundef %0, ptr noundef %1) #0 {
  %3 = alloca i32, align 4
  %4 = alloca ptr, align 8
  %5 = alloca ptr, align 8
  %6 = alloca ptr, align 8
  %7 = alloca ptr, align 8
  %8 = alloca i32, align 4
  %9 = alloca i32, align 4
  store ptr %0, ptr %4, align 8
  store ptr %1, ptr %5, align 8
  call void @llvm.lifetime.start.p0(i64 8, ptr %6) #8
  call void @llvm.lifetime.start.p0(i64 8, ptr %7) #8
  call void @llvm.lifetime.start.p0(i64 4, ptr %8) #8
  %10 = load ptr, ptr %5, align 8
  %11 = call i32 @stnode_type_id(ptr noundef %10)
  switch i32 %11, label %55 [
    i32 8, label %12
    i32 4, label %12
    i32 2, label %15
    i32 5, label %20
    i32 3, label %20
    i32 6, label %20
    i32 7, label %20
    i32 11, label %21
    i32 14, label %25
    i32 1, label %25
    i32 10, label %47
    i32 12, label %51
    i32 0, label %51
    i32 15, label %51
    i32 9, label %51
    i32 13, label %51
  ]

12:                                               ; preds = %2, %2
  %13 = load ptr, ptr %5, align 8
  %14 = call i32 @sttype_field_ftenum(ptr noundef %13)
  store i32 %14, ptr %3, align 4
  store i32 1, ptr %9, align 4
  br label %56

15:                                               ; preds = %2
  %16 = load ptr, ptr %4, align 8
  %17 = load ptr, ptr %5, align 8
  call void @resolve_unparsed(ptr noundef %16, ptr noundef %17, i1 noundef zeroext true)
  %18 = load ptr, ptr %5, align 8
  %19 = call i32 @sttype_field_ftenum(ptr noundef %18)
  store i32 %19, ptr %3, align 4
  store i32 1, ptr %9, align 4
  br label %56

20:                                               ; preds = %2, %2, %2, %2
  store i32 0, ptr %3, align 4
  store i32 1, ptr %9, align 4
  br label %56

21:                                               ; preds = %2
  %22 = load ptr, ptr %4, align 8
  %23 = load ptr, ptr %5, align 8
  %24 = call i32 @get_function_ftype(ptr noundef %22, ptr noundef %23)
  store i32 %24, ptr %3, align 4
  store i32 1, ptr %9, align 4
  br label %56

25:                                               ; preds = %2, %2
  %26 = load ptr, ptr %5, align 8
  call void @sttype_oper_get(ptr noundef %26, ptr noundef null, ptr noundef %6, ptr noundef %7)
  %27 = load ptr, ptr %6, align 8
  %28 = icmp ne ptr %27, null
  br i1 %28, label %29, label %36

29:                                               ; preds = %25
  %30 = load ptr, ptr %4, align 8
  %31 = load ptr, ptr %6, align 8
  %32 = call i32 @get_logical_ftype(ptr noundef %30, ptr noundef %31)
  store i32 %32, ptr %8, align 4
  %33 = icmp ne i32 %32, 0
  br i1 %33, label %34, label %36

34:                                               ; preds = %29
  %35 = load i32, ptr %8, align 4
  store i32 %35, ptr %3, align 4
  store i32 1, ptr %9, align 4
  br label %56

36:                                               ; preds = %29, %25
  %37 = load ptr, ptr %7, align 8
  %38 = icmp ne ptr %37, null
  br i1 %38, label %39, label %46

39:                                               ; preds = %36
  %40 = load ptr, ptr %4, align 8
  %41 = load ptr, ptr %7, align 8
  %42 = call i32 @get_logical_ftype(ptr noundef %40, ptr noundef %41)
  store i32 %42, ptr %8, align 4
  %43 = icmp ne i32 %42, 0
  br i1 %43, label %44, label %46

44:                                               ; preds = %39
  %45 = load i32, ptr %8, align 4
  store i32 %45, ptr %3, align 4
  store i32 1, ptr %9, align 4
  br label %56

46:                                               ; preds = %39, %36
  store i32 0, ptr %3, align 4
  store i32 1, ptr %9, align 4
  br label %56

47:                                               ; preds = %2
  %48 = load ptr, ptr %4, align 8
  %49 = load ptr, ptr %5, align 8
  %50 = call i32 @get_slice_ftype(ptr noundef %48, ptr noundef %49)
  store i32 %50, ptr %3, align 4
  store i32 1, ptr %9, align 4
  br label %56

51:                                               ; preds = %2, %2, %2, %2, %2
  %52 = load ptr, ptr %5, align 8
  %53 = call i32 @stnode_type_id(ptr noundef %52)
  %54 = call ptr @sttype_name(i32 noundef %53)
  call void (ptr, i32, ptr, i64, ptr, ptr, ...) @ws_log_fatal_full(ptr noundef @.str, i32 noundef 7, ptr noundef @.str.1, i64 noundef 838, ptr noundef @__func__.get_logical_ftype, ptr noundef @.str.6, ptr noundef %54) #7
  unreachable

55:                                               ; preds = %2
  call void (ptr, i32, ptr, i64, ptr, ptr, ...) @ws_log_fatal_full(ptr noundef @.str, i32 noundef 7, ptr noundef @.str.1, i64 noundef 841, ptr noundef @__func__.get_logical_ftype, ptr noundef @.str.3) #7
  unreachable

56:                                               ; preds = %47, %46, %44, %34, %21, %20, %15, %12
  call void @llvm.lifetime.end.p0(i64 4, ptr %8) #8
  call void @llvm.lifetime.end.p0(i64 8, ptr %7) #8
  call void @llvm.lifetime.end.p0(i64 8, ptr %6) #8
  %57 = load i32, ptr %3, align 4
  ret i32 %57
}