; Function Attrs: null_pointer_is_valid sspstrong uwtable
define hidden i32 @get_logical_ftype(ptr noundef %0, ptr noundef %1) local_unnamed_addr #0 {
  %3 = alloca ptr, align 8
  %4 = alloca ptr, align 8
  call void @llvm.lifetime.start.p0(i64 8, ptr nonnull %3) #8
  call void @llvm.lifetime.start.p0(i64 8, ptr nonnull %4) #8
  %5 = tail call i32 @stnode_type_id(ptr noundef %1)
  switch i32 %5, label %51 [
    i32 8, label %6
    i32 4, label %6
    i32 2, label %8
    i32 5, label %get_function_ftype.exit
    i32 3, label %get_function_ftype.exit
    i32 6, label %get_function_ftype.exit
    i32 7, label %get_function_ftype.exit
    i32 11, label %10
    i32 14, label %33
    i32 1, label %33
    i32 10, label %42
    i32 12, label %48
    i32 0, label %48
    i32 15, label %48
    i32 9, label %48
    i32 13, label %48
  ]

6:                                                ; preds = %2, %2
  %7 = tail call i32 @sttype_field_ftenum(ptr noundef %1)
  br label %get_function_ftype.exit

8:                                                ; preds = %2
  tail call void @resolve_unparsed(ptr noundef %0, ptr noundef %1, i1 noundef zeroext true)
  %9 = tail call i32 @sttype_field_ftenum(ptr noundef %1)
  br label %get_function_ftype.exit

10:                                               ; preds = %2
  %11 = tail call ptr @sttype_function_funcdef(ptr noundef %1)
  %12 = tail call ptr @sttype_function_params(ptr noundef %1)
  %13 = tail call i32 @g_slist_length(ptr noundef %12)
  %14 = getelementptr inbounds nuw i8, ptr %11, i64 24
  %15 = load i32, ptr %14, align 8
  %.not.i = icmp eq i32 %15, 0
  br i1 %.not.i, label %16, label %get_function_ftype.exit

16:                                               ; preds = %10
  %17 = icmp eq i32 %13, 0
  %.not23.i23 = icmp eq ptr %12, null
  %or.cond = or i1 %17, %.not23.i23
  br i1 %or.cond, label %get_function_ftype.exit, label %.lr.ph

.lr.ph:                                           ; preds = %16
  %18 = getelementptr inbounds nuw i8, ptr %0, i64 72
  br label %19

19:                                               ; preds = %.lr.ph, %30
  %.018.i24 = phi ptr [ %12, %.lr.ph ], [ %32, %30 ]
  %20 = load ptr, ptr %.018.i24, align 8
  %21 = tail call i32 @stnode_type_id(ptr noundef %20)
  %.not.i22 = icmp eq i32 %21, 2
  br i1 %.not.i22, label %22, label %resolve_unparsed.exit

22:                                               ; preds = %19
  %23 = tail call ptr @stnode_data(ptr noundef %20)
  %24 = load ptr, ptr %18, align 8
  %25 = tail call ptr @dfilter_resolve_unparsed(ptr noundef %23, ptr noundef %24)
  %.not10.i = icmp eq ptr %25, null
  br i1 %.not10.i, label %27, label %26

26:                                               ; preds = %22
  tail call void @stnode_replace(ptr noundef %20, i32 noundef 8, ptr noundef nonnull %25)
  br label %resolve_unparsed.exit

27:                                               ; preds = %22
  tail call void @stnode_mutate(ptr noundef %20, i32 noundef 3)
  br label %resolve_unparsed.exit

resolve_unparsed.exit:                            ; preds = %19, %26, %27
  %28 = load ptr, ptr %.018.i24, align 8
  %29 = tail call i32 @get_logical_ftype(ptr noundef %0, ptr noundef %28)
  %.not24.i = icmp eq i32 %29, 0
  br i1 %.not24.i, label %30, label %get_function_ftype.exit

30:                                               ; preds = %resolve_unparsed.exit
  %31 = getelementptr inbounds nuw i8, ptr %.018.i24, i64 8
  %32 = load ptr, ptr %31, align 8
  %.not23.i = icmp eq ptr %32, null
  br i1 %.not23.i, label %get_function_ftype.exit, label %19, !llvm.loop !9

33:                                               ; preds = %2, %2
  call void @sttype_oper_get(ptr noundef %1, ptr noundef null, ptr noundef nonnull %3, ptr noundef nonnull %4)
  %34 = load ptr, ptr %3, align 8
  %.not = icmp eq ptr %34, null
  br i1 %.not, label %37, label %35

35:                                               ; preds = %33
  %36 = call i32 @get_logical_ftype(ptr noundef %0, ptr noundef nonnull %34)
  %.not19 = icmp eq i32 %36, 0
  br i1 %.not19, label %37, label %get_function_ftype.exit

37:                                               ; preds = %35, %33
  %38 = load ptr, ptr %4, align 8
  %.not20 = icmp eq ptr %38, null
  br i1 %.not20, label %41, label %39

39:                                               ; preds = %37
  %40 = call i32 @get_logical_ftype(ptr noundef %0, ptr noundef nonnull %38)
  %.not21 = icmp eq i32 %40, 0
  br i1 %.not21, label %41, label %get_function_ftype.exit

41:                                               ; preds = %39, %37
  br label %get_function_ftype.exit

42:                                               ; preds = %2
  %43 = tail call ptr @sttype_slice_entity(ptr noundef %1)
  tail call void @resolve_unparsed(ptr noundef %0, ptr noundef %43, i1 noundef zeroext true)
  %44 = tail call i32 @get_logical_ftype(ptr noundef %0, ptr noundef %43)
  switch i32 %44, label %45 [
    i32 45, label %get_function_ftype.exit
    i32 43, label %get_function_ftype.exit
    i32 28, label %get_function_ftype.exit
    i32 27, label %get_function_ftype.exit
    i32 26, label %get_function_ftype.exit
  ]

45:                                               ; preds = %42
  %46 = icmp eq i32 %44, 39
  %47 = select i1 %46, i32 26, i32 30
  br label %get_function_ftype.exit

48:                                               ; preds = %2, %2, %2, %2, %2
  %49 = tail call i32 @stnode_type_id(ptr noundef %1)
  %50 = tail call ptr @sttype_name(i32 noundef %49)
  tail call void (ptr, i32, ptr, i64, ptr, ptr, ...) @ws_log_fatal_full(ptr noundef nonnull @.str, i32 noundef 7, ptr noundef nonnull @.str.1, i64 noundef 838, ptr noundef nonnull @__func__.get_logical_ftype, ptr noundef nonnull @.str.6, ptr noundef %50) #7
  unreachable

51:                                               ; preds = %2
  tail call void (ptr, i32, ptr, i64, ptr, ptr, ...) @ws_log_fatal_full(ptr noundef nonnull @.str, i32 noundef 7, ptr noundef nonnull @.str.1, i64 noundef 841, ptr noundef nonnull @__func__.get_logical_ftype, ptr noundef nonnull @.str.3) #7
  unreachable

get_function_ftype.exit:                          ; preds = %resolve_unparsed.exit, %30, %45, %42, %42, %42, %42, %42, %16, %10, %39, %35, %2, %2, %2, %2, %41, %8, %6
  %.0 = phi i32 [ 0, %41 ], [ %9, %8 ], [ %7, %6 ], [ 0, %2 ], [ 0, %2 ], [ 0, %2 ], [ 0, %2 ], [ %36, %35 ], [ %40, %39 ], [ %15, %10 ], [ 0, %16 ], [ 26, %42 ], [ %47, %45 ], [ 26, %42 ], [ 26, %42 ], [ 26, %42 ], [ 26, %42 ], [ %29, %resolve_unparsed.exit ], [ 0, %30 ]
  call void @llvm.lifetime.end.p0(i64 8, ptr nonnull %4) #8
  call void @llvm.lifetime.end.p0(i64 8, ptr nonnull %3) #8
  ret i32 %.0
}